; Function Attrs: nounwind uwtable
define hidden noalias ptr @mi_mallocn(i64 noundef %0, i64 noundef %1) local_unnamed_addr #3 {
  %3 = tail call align 8 ptr @llvm.threadlocal.address.p0(ptr align 8 @_mi_heap_default)
  %4 = load ptr, ptr %3, align 8, !tbaa !3
  %.not.i = icmp eq i64 %0, 1
  br i1 %.not.i, label %9, label %5

5:                                                ; preds = %2
  %6 = tail call { i64, i1 } @llvm.umul.with.overflow.i64(i64 range(i64 2, 1) %0, i64 %1)
  %7 = extractvalue { i64, i1 } %6, 1
  %8 = extractvalue { i64, i1 } %6, 0
  br i1 %7, label %mi_heap_mallocn.exit, label %9, !prof !17

9:                                                ; preds = %5, %2
  %storemerge.i.ph.i = phi i64 [ %1, %2 ], [ %8, %5 ]
  %10 = icmp ult i64 %storemerge.i.ph.i, 1025
  br i1 %10, label %11, label %27, !prof !8

11:                                               ; preds = %9
  %12 = add nuw nsw i64 %storemerge.i.ph.i, 7
  %13 = lshr i64 %12, 3
  %14 = getelementptr inbounds nuw i8, ptr %4, i64 232
  %15 = getelementptr inbounds nuw [129 x ptr], ptr %14, i64 0, i64 %13
  %16 = load ptr, ptr %15, align 8, !tbaa !9
  %17 = getelementptr inbounds nuw i8, ptr %16, i64 8
  %18 = load ptr, ptr %17, align 8, !tbaa !11
  %19 = icmp eq ptr %18, null
  br i1 %19, label %20, label %22, !prof !17

20:                                               ; preds = %11
  %21 = tail call noalias ptr @_mi_malloc_generic(ptr noundef nonnull %4, i64 noundef %storemerge.i.ph.i, i1 noundef zeroext false, i64 noundef 0) #19
  br label %mi_heap_mallocn.exit

22:                                               ; preds = %11
  %.val.i.i.i.i.i.i = load i64, ptr %18, align 8, !tbaa !18
  %23 = inttoptr i64 %.val.i.i.i.i.i.i to ptr
  store ptr %23, ptr %17, align 8, !tbaa !11
  %24 = getelementptr inbounds nuw i8, ptr %16, i64 24
  %25 = load i16, ptr %24, align 8, !tbaa !20
  %26 = add i16 %25, 1
  store i16 %26, ptr %24, align 8, !tbaa !20
  br label %mi_heap_mallocn.exit

27:                                               ; preds = %9
  %28 = tail call noalias ptr @_mi_malloc_generic(ptr noundef %4, i64 noundef %storemerge.i.ph.i, i1 noundef zeroext false, i64 noundef 0) #19
  br label %mi_heap_mallocn.exit

mi_heap_mallocn.exit:                             ; preds = %5, %20, %22, %27
  %.0.i = phi ptr [ null, %5 ], [ %28, %27 ], [ %21, %20 ], [ %18, %22 ]
  ret ptr %.0.i
}